target datalayout = "e-m:e-p270:32:32-p271:32:32-p272:64:64-i64:64-i128:128-f80:128-n8:16:32:64-S128"
target triple = "x86_64-pc-linux-gnu"

%"struct.Luau::CodeGen::X64::RegisterX64" = type { i8 }
%"struct.Luau::CodeGen::X64::OperandX64" = type { i8, %"struct.Luau::CodeGen::X64::RegisterX64", %"struct.Luau::CodeGen::X64::RegisterX64", i8, i32 }

@.str.64 = private unnamed_addr constant [10 x i8] c"vcvtsd2ss\00", align 1

; Function Attrs: mustprogress uwtable
define dso_local void @_ZN4Luau7CodeGen3X6418AssemblyBuilderX649vcvtsd2ssENS1_10OperandX64ES3_S3_(ptr noundef nonnull align 8 dereferenceable(252) %0, i64 %1, i64 %2, i64 %3) #0 align 2 {
  %5 = alloca %"struct.Luau::CodeGen::X64::OperandX64", align 4
  %6 = alloca %"struct.Luau::CodeGen::X64::OperandX64", align 4
  %7 = alloca %"struct.Luau::CodeGen::X64::OperandX64", align 4
  %8 = alloca ptr, align 8
  %9 = alloca %"struct.Luau::CodeGen::X64::OperandX64", align 4
  %10 = alloca %"struct.Luau::CodeGen::X64::OperandX64", align 4
  %11 = alloca %"struct.Luau::CodeGen::X64::OperandX64", align 4
  store i64 %1, ptr %5, align 4
  store i64 %2, ptr %6, align 4
  store i64 %3, ptr %7, align 4
  store ptr %0, ptr %8, align 8, !tbaa !4
  %12 = load ptr, ptr %8, align 8
  %13 = getelementptr inbounds nuw %"struct.Luau::CodeGen::X64::OperandX64", ptr %7, i32 0, i32 0
  %14 = load i8, ptr %13, align 4, !tbaa !81
  %15 = icmp eq i8 %14, 0
  br i1 %15, label %16, label %17

16:                                               ; preds = %4
  br label %18

17:                                               ; preds = %4
  br label %18

18:                                               ; preds = %17, %16
  call void @llvm.memcpy.p0.p0.i64(ptr align 4 %9, ptr align 4 %5, i64 8, i1 false), !tbaa.struct !76
  call void @llvm.memcpy.p0.p0.i64(ptr align 4 %10, ptr align 4 %6, i64 8, i1 false), !tbaa.struct !76
  call void @llvm.memcpy.p0.p0.i64(ptr align 4 %11, ptr align 4 %7, i64 8, i1 false), !tbaa.struct !76
  %19 = getelementptr inbounds nuw %"struct.Luau::CodeGen::X64::OperandX64", ptr %7, i32 0, i32 0
  %20 = load i8, ptr %19, align 4, !tbaa !81
  %21 = icmp eq i8 %20, 0
  br i1 %21, label %22, label %26

22:                                               ; preds = %18
  %23 = getelementptr inbounds nuw %"struct.Luau::CodeGen::X64::OperandX64", ptr %7, i32 0, i32 2
  %24 = load i8, ptr %23, align 2
  %25 = and i8 %24, 7
  br label %30

26:                                               ; preds = %18
  %27 = getelementptr inbounds nuw %"struct.Luau::CodeGen::X64::OperandX64", ptr %7, i32 0, i32 3
  %28 = load i8, ptr %27, align 1
  %29 = and i8 %28, 15
  br label %30

30:                                               ; preds = %26, %22
  %31 = phi i8 [ %25, %22 ], [ %29, %26 ]
  %32 = icmp eq i8 %31, 4
  %33 = load i64, ptr %9, align 4
  %34 = load i64, ptr %10, align 4
  %35 = load i64, ptr %11, align 4
  call void @_ZN4Luau7CodeGen3X6418AssemblyBuilderX648placeAvxEPKcNS1_10OperandX64ES5_S5_hbhh(ptr noundef nonnull align 8 dereferenceable(252) %12, ptr noundef @.str.64, i64 %33, i64 %34, i64 %35, i8 noundef zeroext 90, i1 noundef zeroext %32, i8 noundef zeroext 1, i8 noundef zeroext 3)
  ret void
}