; Function Attrs: mustprogress uwtable
define dso_local void @_ZN4Luau7CodeGen3X6418AssemblyBuilderX649vcvtsd2ssENS1_10OperandX64ES3_S3_(ptr noundef nonnull align 8 dereferenceable(252) %0, i64 %1, i64 %2, i64 %3) local_unnamed_addr #0 align 2 {
  %.sroa.34.0.extract.shift = lshr i64 %3, 16
  %.sroa.34.0.extract.trunc = trunc i64 %.sroa.34.0.extract.shift to i8
  %.sroa.4.0.extract.shift = lshr i64 %3, 24
  %.sroa.4.0.extract.trunc = trunc i64 %.sroa.4.0.extract.shift to i8
  %5 = and i64 %3, 255
  %6 = icmp eq i64 %5, 0
  %7 = and i8 %.sroa.34.0.extract.trunc, 7
  %8 = and i8 %.sroa.4.0.extract.trunc, 15
  %9 = select i1 %6, i8 %7, i8 %8
  %10 = icmp eq i8 %9, 4
  tail call void @_ZN4Luau7CodeGen3X6418AssemblyBuilderX648placeAvxEPKcNS1_10OperandX64ES5_S5_hbhh(ptr noundef nonnull align 8 dereferenceable(252) %0, ptr noundef nonnull @.str.64, i64 %1, i64 %2, i64 %3, i8 noundef zeroext 90, i1 noundef zeroext %10, i8 noundef zeroext 1, i8 noundef zeroext 3)
  ret void
}